TN:
SF:/mnt/c/Users/will/dilithion/src/consensus/fees.cpp
FN:13,33,_ZN9Consensus8CheckFeeERK12CTransactionlbPNSt7__cxx1112basic_stringIcSt11char_traitsIcESaIcEEE
FN:35,37,_ZN9Consensus16CalculateFeeRateElm
FN:39,41,_ZN9Consensus23EstimateDilithiumTxSizeEmmm
FN:9,11,_ZN9Consensus15CalculateMinFeeEm
FNDA:13,_ZN9Consensus8CheckFeeERK12CTransactionlbPNSt7__cxx1112basic_stringIcSt11char_traitsIcESaIcEEE
FNDA:6,_ZN9Consensus16CalculateFeeRateElm
FNDA:6,_ZN9Consensus23EstimateDilithiumTxSizeEmmm
FNDA:21,_ZN9Consensus15CalculateMinFeeEm
FNF:4
FNH:4
DA:9,21
DA:10,21
DA:13,13
DA:14,13
DA:15,13
DA:17,13
DA:18,2
DA:19,2
DA:22,11
DA:23,2
DA:24,2
DA:27,9
DA:28,3
DA:29,3
DA:32,6
DA:35,6
DA:36,6
DA:39,6
DA:40,6
LF:19
LH:19
end_of_record
TN:
SF:/mnt/c/Users/will/dilithion/src/consensus/pow.cpp
FN:108,131,_ZL14Multiply256x64RK7uint256mPh
FN:13,22,_Z12HashLessThanRK7uint256S1_
FN:143,169,_ZL12Divide320x64PKhm
FN:171,202,_Z25CalculateNextWorkRequiredjll
FN:204,289,_Z19GetNextWorkRequiredPK11CBlockIndex
FN:24,34,_Z20ChainWorkGreaterThanRK7uint256S1_
FN:291,306,_Z17GetMedianTimePastPK11CBlockIndex
FN:308,334,_Z19CheckBlockTimestampRK12CBlockHeaderPK11CBlockIndex
FN:36,61,_Z12CompactToBigj
FN:63,84,_Z12BigToCompactRK7uint256
FN:86,96,_Z16CheckProofOfWork7uint256j
FNDA:14,_ZL14Multiply256x64RK7uint256mPh
FNDA:9,_Z12HashLessThanRK7uint256S1_
FNDA:14,_ZL12Divide320x64PKhm
FNDA:9,_Z25CalculateNextWorkRequiredjll
FNDA:7,_Z19GetNextWorkRequiredPK11CBlockIndex
FNDA:2,_Z20ChainWorkGreaterThanRK7uint256S1_
FNDA:0,_Z17GetMedianTimePastPK11CBlockIndex
FNDA:0,_Z19CheckBlockTimestampRK12CBlockHeaderPK11CBlockIndex
FNDA:22,_Z12CompactToBigj
FNDA:16,_Z12BigToCompactRK7uint256
FNDA:5,_Z16CheckProofOfWork7uint256j
FNF:11
FNH:9
DA:13,9
DA:15,78
DA:16,76
DA:17,3
DA:18,73
DA:19,4
DA:21,2
DA:24,2
DA:27,2
DA:28,2
DA:29,1
DA:30,1
DA:31,1
DA:33,0
DA:36,22
DA:37,22
DA:38,22
DA:40,22
DA:41,22
DA:44,22
DA:45,0
DA:46,0
DA:49,22
DA:50,0
DA:51,0
DA:52,0
DA:53,0
DA:55,22
DA:56,22
DA:57,22
DA:60,22
DA:63,16
DA:65,16
DA:66,68
DA:67,52
DA:69,16
DA:70,0
DA:72,16
DA:73,16
DA:74,0
DA:75,0
DA:77,16
DA:81,16
DA:83,16
DA:86,5
DA:88,5
DA:89,0
DA:92,5
DA:95,5
DA:108,14
DA:110,14
DA:114,14
DA:115,462
DA:117,448
DA:120,448
DA:123,448
DA:127,14
DA:128,0
DA:129,0
DA:131,14
DA:143,14
DA:144,14
DA:145,14
DA:148,14
DA:151,574
DA:153,560
DA:156,560
DA:157,560
DA:160,560
DA:161,448
DA:168,14
DA:171,9
DA:177,9
DA:178,1
DA:179,9
DA:180,0
DA:183,9
DA:184,9
DA:189,9
DA:190,9
DA:193,9
DA:196,9
DA:197,4
DA:198,9
DA:199,0
DA:201,9
DA:204,7
DA:206,7
DA:207,1
DA:211,6
DA:214,6
DA:217,1
DA:220,1
DA:221,0
DA:224,1
DA:229,5
DA:230,10080
DA:231,10075
DA:234,5
DA:236,0
DA:240,5
DA:243,5
DA:247,5
DA:248,1
DA:249,5
DA:250,1
DA:255,5
DA:256,5
DA:271,5
DA:272,5
DA:275,5
DA:278,5
DA:279,3
DA:280,5
DA:281,0
DA:283,5
DA:284,5
DA:285,5
DA:286,5
DA:288,5
DA:291,0
DA:292,0
DA:293,0
DA:296,0
DA:297,0
DA:298,0
DA:302,0
DA:305,0
DA:306,0
DA:308,0
DA:311,0
DA:313,0
DA:315,0
DA:316,0
DA:317,0
DA:322,0
DA:323,0
DA:325,0
DA:327,0
DA:328,0
DA:329,0
DA:333,0
LF:142
LH:102
end_of_record
TN:
SF:/mnt/c/Users/will/dilithion/src/consensus/tx_validation.cpp
FN:111,180,_ZNK21CTransactionValidator22CheckTransactionInputsERK12CTransactionR8CUTXOSetjRlRNSt7__cxx1112basic_stringIcSt11char_traitsIcESaIcEEE
FN:16,105,_ZNK21CTransactionValidator21CheckTransactionBasicERK12CTransactionRNSt7__cxx1112basic_stringIcSt11char_traitsIcESaIcEEE
FN:194,378,_ZNK21CTransactionValidator12VerifyScriptERK12CTransactionmRKSt6vectorIhSaIhEES7_RNSt7__cxx1112basic_stringIcSt11char_traitsIcESaIcEEE
FN:384,419,_ZNK21CTransactionValidator16CheckTransactionERK12CTransactionR8CUTXOSetjRlRNSt7__cxx1112basic_stringIcSt11char_traitsIcESaIcEEE
FN:425,464,_ZNK21CTransactionValidator21IsStandardTransactionERK12CTransaction
FN:466,471,_ZNK21CTransactionValidator20GetTransactionWeightERK12CTransaction
FN:473,478,_ZNK21CTransactionValidator13GetMinimumFeeERK12CTransaction
FN:480,495,_ZNK21CTransactionValidator16CheckDoubleSpendERK12CTransactionR8CUTXOSet
FN:501,516,_ZNK21CTransactionValidator20CheckDuplicateInputsERK12CTransaction
FN:518,547,_ZNK21CTransactionValidator24CalculateTotalInputValueERK12CTransactionR8CUTXOSetRlRNSt7__cxx1112basic_stringIcSt11char_traitsIcESaIcEEE
FN:549,575,_ZNK21CTransactionValidator21CheckCoinbaseMaturityERK12CTransactionR8CUTXOSetjRNSt7__cxx1112basic_stringIcSt11char_traitsIcESaIcEEE
FNDA:15,_ZNK21CTransactionValidator22CheckTransactionInputsERK12CTransactionR8CUTXOSetjRlRNSt7__cxx1112basic_stringIcSt11char_traitsIcESaIcEEE
FNDA:13,_ZNK21CTransactionValidator21CheckTransactionBasicERK12CTransactionRNSt7__cxx1112basic_stringIcSt11char_traitsIcESaIcEEE
FNDA:0,_ZNK21CTransactionValidator12VerifyScriptERK12CTransactionmRKSt6vectorIhSaIhEES7_RNSt7__cxx1112basic_stringIcSt11char_traitsIcESaIcEEE
FNDA:0,_ZNK21CTransactionValidator16CheckTransactionERK12CTransactionR8CUTXOSetjRlRNSt7__cxx1112basic_stringIcSt11char_traitsIcESaIcEEE
FNDA:4,_ZNK21CTransactionValidator21IsStandardTransactionERK12CTransaction
FNDA:1,_ZNK21CTransactionValidator20GetTransactionWeightERK12CTransaction
FNDA:1,_ZNK21CTransactionValidator13GetMinimumFeeERK12CTransaction
FNDA:2,_ZNK21CTransactionValidator16CheckDoubleSpendERK12CTransactionR8CUTXOSet
FNDA:6,_ZNK21CTransactionValidator20CheckDuplicateInputsERK12CTransaction
FNDA:11,_ZNK21CTransactionValidator24CalculateTotalInputValueERK12CTransactionR8CUTXOSetRlRNSt7__cxx1112basic_stringIcSt11char_traitsIcESaIcEEE
FNDA:13,_ZNK21CTransactionValidator21CheckCoinbaseMaturityERK12CTransactionR8CUTXOSetjRNSt7__cxx1112basic_stringIcSt11char_traitsIcESaIcEEE
FNF:11
FNH:9
DA:16,13
DA:19,13
DA:20,1
DA:21,1
DA:25,12
DA:27,2
DA:28,0
DA:29,0
DA:33,2
DA:34,0
DA:35,0
DA:39,2
DA:40,1
DA:41,1
DA:45,10
DA:46,1
DA:47,1
DA:51,18
DA:52,10
DA:53,1
DA:54,1
DA:60,9
DA:61,1
DA:62,1
DA:66,8
DA:67,14
DA:69,9
DA:70,1
DA:71,3
DA:75,8
DA:76,1
DA:77,1
DA:81,7
DA:82,7
DA:83,1
DA:84,1
DA:89,5
DA:90,5
DA:92,1
DA:94,1
DA:95,1
DA:99,4
DA:100,1
DA:101,1
DA:104,3
DA:111,15
DA:116,15
DA:117,0
DA:118,0
DA:122,30
DA:123,17
DA:125,2
DA:126,4
DA:127,2
DA:128,2
DA:133,13
DA:134,2
DA:138,11
DA:139,11
DA:140,0
DA:144,11
DA:145,24
DA:146,13
DA:150,11
DA:151,3
DA:152,3
DA:155,8
DA:158,8
DA:159,0
DA:160,0
DA:164,8
DA:165,0
DA:166,0
DA:171,8
DA:172,8
DA:173,8
DA:174,4
DA:175,4
DA:177,8
DA:179,4
DA:194,0
DA:208,0
DA:209,0
DA:210,0
DA:211,0
DA:212,0
DA:213,0
DA:216,0
DA:217,0
DA:218,0
DA:219,0
DA:220,0
DA:221,0
DA:223,0
DA:224,0
DA:225,0
DA:234,0
DA:235,0
DA:236,0
DA:238,0
DA:240,0
DA:242,0
DA:243,0
DA:247,0
DA:248,0
DA:249,0
DA:252,0
DA:254,0
DA:256,0
DA:257,0
DA:261,0
DA:262,0
DA:263,0
DA:267,0
DA:268,0
DA:271,0
DA:272,0
DA:275,0
DA:277,0
DA:279,0
DA:280,0
DA:284,0
DA:285,0
DA:286,0
DA:290,0
DA:298,0
DA:304,0
DA:306,0
DA:307,0
DA:310,0
DA:311,0
DA:316,0
DA:317,0
DA:318,0
DA:326,0
DA:331,0
DA:332,0
DA:334,0
DA:337,0
DA:338,0
DA:339,0
DA:340,0
DA:341,0
DA:344,0
DA:345,0
DA:346,0
DA:347,0
DA:348,0
DA:351,0
DA:352,0
DA:353,0
DA:358,0
DA:364,0
DA:365,0
DA:368,0
DA:371,0
DA:372,0
DA:373,0
DA:377,0
DA:378,0
DA:384,0
DA:389,0
DA:390,0
DA:394,0
DA:395,0
DA:399,0
DA:400,0
DA:401,0
DA:403,0
DA:404,0
DA:405,0
DA:406,0
DA:409,0
DA:411,0
DA:412,0
DA:413,0
DA:415,0
DA:418,0
DA:425,4
DA:428,4
DA:429,1
DA:433,3
DA:434,3
DA:435,1
DA:439,2
DA:440,3
DA:441,2
DA:442,1
DA:447,2
DA:449,1
DA:450,0
DA:454,1
DA:455,1
DA:456,1
DA:457,3
DA:458,1
DA:459,0
DA:463,1
DA:466,1
DA:470,1
DA:473,1
DA:476,1
DA:477,1
DA:480,2
DA:483,2
DA:484,1
DA:488,2
DA:489,1
DA:490,0
DA:494,1
DA:501,6
DA:503,6
DA:505,12
DA:507,8
DA:510,8
DA:511,2
DA:515,4
DA:516,6
DA:518,11
DA:521,11
DA:523,24
DA:524,13
DA:525,13
DA:526,0
DA:527,0
DA:531,13
DA:532,0
DA:533,0
DA:537,13
DA:538,13
DA:539,0
DA:540,0
DA:543,13
DA:544,13
DA:546,11
DA:549,13
DA:552,26
DA:553,15
DA:554,15
DA:555,0
DA:556,0
DA:560,15
DA:561,3
DA:563,3
DA:565,2
DA:568,2
DA:569,2
DA:572,15
DA:574,11
LF:249
LH:129
end_of_record
TN:
SF:/mnt/c/Users/will/dilithion/src/consensus/tx_validation.h
FN:199,201,_ZNK21CTransactionValidator10MoneyRangeEl
FNDA:49,_ZNK21CTransactionValidator10MoneyRangeEl
FNF:1
FNH:1
DA:199,49
DA:200,49
LF:2
LH:2
end_of_record
TN:
SF:/mnt/c/Users/will/dilithion/src/consensus/validation.cpp
FN:12,31,_ZN15CBlockValidator21CalculateBlockSubsidyEj
FN:169,191,_ZNK15CBlockValidator16CheckBlockHeaderERK12CBlockHeaderjRNSt7__cxx1112basic_stringIcSt11char_traitsIcESaIcEEE
FN:193,258,_ZNK15CBlockValidator13CheckCoinbaseERK12CTransactionjlRNSt7__cxx1112basic_stringIcSt11char_traitsIcESaIcEEE
FN:260,278,_ZNK15CBlockValidator28CheckNoDuplicateTransactionsERKSt6vectorISt10shared_ptrIK12CTransactionESaIS4_EERNSt7__cxx1112basic_stringIcSt11char_traitsIcESaIcEEE
FN:280,304,_ZNK15CBlockValidator19CheckNoDoubleSpendsERKSt6vectorISt10shared_ptrIK12CTransactionESaIS4_EERNSt7__cxx1112basic_stringIcSt11char_traitsIcESaIcEEE
FN:306,319,_ZNK15CBlockValidator16VerifyMerkleRootERK6CBlockRKSt6vectorISt10shared_ptrIK12CTransactionESaIS7_EERNSt7__cxx1112basic_stringIcSt11char_traitsIcESaIcEEE
FN:321,376,_ZNK15CBlockValidator18CalculateTotalFeesERKSt6vectorISt10shared_ptrIK12CTransactionESaIS4_EER8CUTXOSetRlRNSt7__cxx1112basic_stringIcSt11char_traitsIcESaIcEEE
FN:33,73,_ZNK15CBlockValidator15BuildMerkleRootERKSt6vectorISt10shared_ptrIK12CTransactionESaIS4_EE
FN:378,520,_ZNK15CBlockValidator10CheckBlockERK6CBlockR8CUTXOSetjRNSt7__cxx1112basic_stringIcSt11char_traitsIcESaIcEEE
FN:75,167,_ZNK15CBlockValidator28DeserializeBlockTransactionsERK6CBlockRSt6vectorISt10shared_ptrIK12CTransactionESaIS7_EERNSt7__cxx1112basic_stringIcSt11char_traitsIcESaIcEEE
FNDA:9,_ZN15CBlockValidator21CalculateBlockSubsidyEj
FNDA:0,_ZNK15CBlockValidator16CheckBlockHeaderERK12CBlockHeaderjRNSt7__cxx1112basic_stringIcSt11char_traitsIcESaIcEEE
FNDA:0,_ZNK15CBlockValidator13CheckCoinbaseERK12CTransactionjlRNSt7__cxx1112basic_stringIcSt11char_traitsIcESaIcEEE
FNDA:0,_ZNK15CBlockValidator28CheckNoDuplicateTransactionsERKSt6vectorISt10shared_ptrIK12CTransactionESaIS4_EERNSt7__cxx1112basic_stringIcSt11char_traitsIcESaIcEEE
FNDA:0,_ZNK15CBlockValidator19CheckNoDoubleSpendsERKSt6vectorISt10shared_ptrIK12CTransactionESaIS4_EERNSt7__cxx1112basic_stringIcSt11char_traitsIcESaIcEEE
FNDA:0,_ZNK15CBlockValidator16VerifyMerkleRootERK6CBlockRKSt6vectorISt10shared_ptrIK12CTransactionESaIS7_EERNSt7__cxx1112basic_stringIcSt11char_traitsIcESaIcEEE
FNDA:0,_ZNK15CBlockValidator18CalculateTotalFeesERKSt6vectorISt10shared_ptrIK12CTransactionESaIS4_EER8CUTXOSetRlRNSt7__cxx1112basic_stringIcSt11char_traitsIcESaIcEEE
FNDA:19,_ZNK15CBlockValidator15BuildMerkleRootERKSt6vectorISt10shared_ptrIK12CTransactionESaIS4_EE
FNDA:0,_ZNK15CBlockValidator10CheckBlockERK6CBlockR8CUTXOSetjRNSt7__cxx1112basic_stringIcSt11char_traitsIcESaIcEEE
FNDA:17,_ZNK15CBlockValidator28DeserializeBlockTransactionsERK6CBlockRSt6vectorISt10shared_ptrIK12CTransactionESaIS7_EERNSt7__cxx1112basic_stringIcSt11char_traitsIcESaIcEEE
FNF:10
FNH:3
DA:12,9
DA:14,9
DA:17,9
DA:20,9
DA:23,9
DA:24,2
DA:28,7
DA:30,7
DA:33,19
DA:34,19
DA:35,1
DA:39,18
DA:40,18
DA:43,51
DA:44,33
DA:48,18
DA:49,31
DA:50,29
DA:51,16
DA:54,16
DA:55,16
DA:56,32
DA:57,16
DA:58,16
DA:59,32
DA:60,16
DA:61,16
DA:64,16
DA:65,16
DA:66,16
DA:67,16
DA:68,13
DA:72,18
DA:73,18
DA:75,17
DA:80,17
DA:82,17
DA:83,0
DA:84,0
DA:87,17
DA:88,17
DA:89,17
DA:92,17
DA:93,0
DA:94,0
DA:97,17
DA:98,17
DA:100,17
DA:101,17
DA:102,0
DA:103,0
DA:104,0
DA:105,0
DA:107,0
DA:108,0
DA:109,0
DA:110,0
DA:111,0
DA:112,0
DA:114,0
DA:115,0
DA:116,0
DA:118,0
DA:119,0
DA:122,17
DA:123,0
DA:124,0
DA:128,17
DA:129,0
DA:130,0
DA:134,17
DA:136,41
DA:138,24
DA:139,0
DA:140,0
DA:144,24
DA:145,24
DA:146,24
DA:148,24
DA:149,0
DA:150,0
DA:154,24
DA:157,24
DA:158,24
DA:161,17
DA:162,0
DA:163,0
DA:166,17
DA:169,0
DA:175,0
DA:176,0
DA:177,0
DA:178,0
DA:182,0
DA:183,0
DA:184,0
DA:190,0
DA:193,0
DA:200,0
DA:201,0
DA:202,0
DA:206,0
DA:207,0
DA:208,0
DA:212,0
DA:213,0
DA:214,0
DA:218,0
DA:219,0
DA:220,0
DA:224,0
DA:225,0
DA:226,0
DA:230,0
DA:233,0
DA:234,0
DA:235,0
DA:236,0
DA:238,0
DA:242,0
DA:243,0
DA:244,0
DA:245,0
DA:246,0
DA:248,0
DA:252,0
DA:253,0
DA:254,0
DA:257,0
DA:260,0
DA:264,0
DA:266,0
DA:267,0
DA:269,0
DA:270,0
DA:271,0
DA:274,0
DA:277,0
DA:278,0
DA:280,0
DA:284,0
DA:286,0
DA:288,0
DA:289,0
DA:292,0
DA:294,0
DA:295,0
DA:296,0
DA:299,0
DA:303,0
DA:304,0
DA:306,0
DA:311,0
DA:313,0
DA:314,0
DA:315,0
DA:318,0
DA:321,0
DA:327,0
DA:330,0
DA:331,0
DA:334,0
DA:335,0
DA:336,0
DA:337,0
DA:338,0
DA:339,0
DA:342,0
DA:343,0
DA:344,0
DA:346,0
DA:347,0
DA:350,0
DA:351,0
DA:352,0
DA:353,0
DA:354,0
DA:356,0
DA:360,0
DA:361,0
DA:362,0
DA:365,0
DA:368,0
DA:369,0
DA:370,0
DA:372,0
DA:375,0
DA:378,0
DA:385,0
DA:386,0
DA:387,0
DA:391,0
DA:392,0
DA:393,0
DA:394,0
DA:398,0
DA:399,0
DA:407,0
DA:408,0
DA:409,0
DA:413,0
DA:414,0
DA:415,0
DA:420,0
DA:421,0
DA:422,0
DA:426,0
DA:427,0
DA:428,0
DA:429,0
DA:434,0
DA:435,0
DA:436,0
DA:437,0
DA:438,0
DA:439,0
DA:441,0
DA:445,0
DA:446,0
DA:447,0
DA:448,0
DA:449,0
DA:450,0
DA:451,0
DA:453,0
DA:458,0
DA:459,0
DA:460,0
DA:461,0
DA:468,0
DA:469,0
DA:470,0
DA:471,0
DA:475,0
DA:476,0
DA:477,0
DA:480,0
DA:481,0
DA:482,0
DA:486,0
DA:487,0
DA:488,0
DA:489,0
DA:493,0
DA:494,0
DA:495,0
DA:499,0
DA:500,0
DA:501,0
DA:503,0
DA:507,0
DA:508,0
DA:510,0
DA:511,0
DA:512,0
DA:513,0
DA:514,0
DA:515,0
DA:519,0
DA:520,0
LF:260
LH:59
end_of_record
TN:
SF:/mnt/c/Users/will/dilithion/src/core/chainparams.cpp
FN:42,74,_ZN9Dilithion11ChainParams7TestnetEv
FN:8,40,_ZN9Dilithion11ChainParams7MainnetEv
FNDA:0,_ZN9Dilithion11ChainParams7TestnetEv
FNDA:0,_ZN9Dilithion11ChainParams7MainnetEv
FNF:2
FNH:0
DA:8,0
DA:9,0
DA:10,0
DA:14,0
DA:17,0
DA:18,0
DA:19,0
DA:20,0
DA:21,0
DA:24,0
DA:25,0
DA:28,0
DA:31,0
DA:32,0
DA:33,0
DA:34,0
DA:37,0
DA:39,0
DA:40,0
DA:42,0
DA:43,0
DA:44,0
DA:48,0
DA:51,0
DA:52,0
DA:53,0
DA:54,0
DA:55,0
DA:58,0
DA:59,0
DA:62,0
DA:65,0
DA:66,0
DA:67,0
DA:68,0
DA:71,0
DA:73,0
DA:74,0
LF:38
LH:0
end_of_record
TN:
SF:/mnt/c/Users/will/dilithion/src/crypto/randomx_hash.cpp
FN:18,54,randomx_init_for_hashing
FN:56,68,randomx_cleanup
FN:70,74,randomx_hash
FN:76,84,randomx_hash_fast
FNDA:1,randomx_init_for_hashing
FNDA:0,randomx_cleanup
FNDA:0,randomx_hash
FNDA:152,randomx_hash_fast
FNF:4
FNH:2
DA:18,1
DA:19,1
DA:21,1
DA:22,1
DA:23,0
DA:26,1
DA:27,0
DA:28,0
DA:30,1
DA:31,0
DA:32,0
DA:37,1
DA:38,1
DA:39,1
DA:40,0
DA:44,1
DA:46,1
DA:47,1
DA:48,0
DA:49,0
DA:50,0
DA:53,1
DA:54,1
DA:56,0
DA:57,0
DA:59,0
DA:60,0
DA:61,0
DA:63,0
DA:64,0
DA:65,0
DA:67,0
DA:68,0
DA:70,0
DA:72,0
DA:73,0
DA:74,0
DA:76,152
DA:77,152
DA:79,152
DA:80,0
DA:83,152
DA:84,152
LF:43
LH:19
end_of_record
TN:
SF:/mnt/c/Users/will/dilithion/src/crypto/sha3.cpp
FN:20,22,_Z8SHA3_256PKhmPh
FN:32,34,_Z8SHA3_512PKhmPh
FNDA:365,_Z8SHA3_256PKhmPh
FNDA:4,_Z8SHA3_512PKhmPh
FNF:2
FNH:2
DA:20,365
DA:21,365
DA:22,365
DA:32,4
DA:33,4
DA:34,4
LF:6
LH:6
end_of_record
TN:
SF:/mnt/c/Users/will/dilithion/src/node/block_index.cpp
FN:10,26,_ZN11CBlockIndexC2Ev
FN:140,166,_ZN11CBlockIndex14BuildChainWorkEv
FN:169,171,_ZL15InvertLowestOnei
FN:173,181,_ZL13GetSkipHeighti
FN:183,219,_ZN11CBlockIndex11GetAncestorEi
FN:28,45,_ZN11CBlockIndexC2ERK12CBlockHeader
FN:47,52,_ZNK11CBlockIndex12GetBlockHashEv
FN:54,56,_ZNK11CBlockIndex7IsValidEv
FN:58,60,_ZNK11CBlockIndex8HaveDataEv
FN:62,67,_ZNK11CBlockIndex8ToStringB5cxx11Ev
FN:69,138,_ZNK11CBlockIndex13GetBlockProofEv
FNDA:10081,_ZN11CBlockIndexC2Ev
FNDA:0,_ZN11CBlockIndex14BuildChainWorkEv
FNDA:0,_ZL15InvertLowestOnei
FNDA:0,_ZL13GetSkipHeighti
FNDA:0,_ZN11CBlockIndex11GetAncestorEi
FNDA:0,_ZN11CBlockIndexC2ERK12CBlockHeader
FNDA:0,_ZNK11CBlockIndex12GetBlockHashEv
FNDA:0,_ZNK11CBlockIndex7IsValidEv
FNDA:0,_ZNK11CBlockIndex8HaveDataEv
FNDA:0,_ZNK11CBlockIndex8ToStringB5cxx11Ev
FNDA:0,_ZNK11CBlockIndex13GetBlockProofEv
FNF:11
FNH:1
DA:10,10081
DA:11,10081
DA:12,10081
DA:13,10081
DA:14,10081
DA:15,10081
DA:16,10081
DA:17,10081
DA:18,10081
DA:19,10081
DA:20,10081
DA:21,10081
DA:22,10081
DA:23,10081
DA:24,10081
DA:25,10081
DA:26,10081
DA:28,0
DA:29,0
DA:30,0
DA:31,0
DA:32,0
DA:33,0
DA:34,0
DA:35,0
DA:36,0
DA:37,0
DA:38,0
DA:39,0
DA:40,0
DA:41,0
DA:42,0
DA:43,0
DA:44,0
DA:45,0
DA:47,0
DA:48,0
DA:49,0
DA:51,0
DA:54,0
DA:55,0
DA:58,0
DA:59,0
DA:62,0
DA:63,0
DA:64,0
DA:65,0
DA:66,0
DA:67,0
DA:69,0
DA:79,0
DA:80,0
DA:81,0
DA:84,0
DA:85,0
DA:86,0
DA:87,0
DA:88,0
DA:92,0
DA:94,0
DA:95,0
DA:100,0
DA:101,0
DA:104,0
DA:105,0
DA:106,0
DA:121,0
DA:122,0
DA:125,0
DA:126,0
DA:129,0
DA:133,0
DA:134,0
DA:137,0
DA:140,0
DA:142,0
DA:144,0
DA:147,0
DA:151,0
DA:152,0
DA:153,0
DA:154,0
DA:156,0
DA:157,0
DA:162,0
DA:163,0
DA:166,0
DA:169,0
DA:170,0
DA:173,0
DA:174,0
DA:175,0
DA:180,0
DA:183,0
DA:185,0
DA:186,0
DA:190,0
DA:191,0
DA:195,0
DA:196,0
DA:198,0
DA:200,0
DA:201,0
DA:204,0
DA:205,0
DA:206,0
DA:207,0
DA:210,0
DA:211,0
DA:213,0
DA:214,0
DA:218,0
LF:112
LH:17
end_of_record
TN:
SF:/mnt/c/Users/will/dilithion/src/node/utxo_set.cpp
FN:106,117,_ZNK8CUTXOSet17SerializeOutPointB5cxx11ERK9COutPoint
FN:119,144,_ZNK8CUTXOSet18SerializeUTXOEntryB5cxx11ERK10CUTXOEntry
FN:146,187,_ZNK8CUTXOSet20DeserializeUTXOEntryERKNSt7__cxx1112basic_stringIcSt11char_traitsIcESaIcEEER10CUTXOEntry
FN:15,19,_ZN8CUTXOSetC2Ev
FN:193,200,_ZNK8CUTXOSet11UpdateCacheERK9COutPointRK10CUTXOEntry
FN:202,204,_ZNK8CUTXOSet15RemoveFromCacheERK9COutPoint
FN:206,213,_ZNK8CUTXOSet12GetFromCacheERK9COutPointR10CUTXOEntry
FN:21,23,_ZN8CUTXOSetD2Ev
FN:219,262,_ZNK8CUTXOSet7GetUTXOERK9COutPointR10CUTXOEntry
FN:264,267,_ZNK8CUTXOSet8HaveUTXOERK9COutPoint
FN:269,294,_ZN8CUTXOSet7AddUTXOERK9COutPointRK6CTxOutjb
FN:29,74,_ZN8CUTXOSet4OpenERKNSt7__cxx1112basic_stringIcSt11char_traitsIcESaIcEEEb
FN:296,345,_ZN8CUTXOSet9SpendUTXOERK9COutPoint
FN:347,523,_ZN8CUTXOSet10ApplyBlockERK6CBlockj
FN:525,732,_ZN8CUTXOSet9UndoBlockERK6CBlock
FN:734,786,_ZN8CUTXOSet5FlushEv
FN:76,95,_ZN8CUTXOSet5CloseEv
FN:792,795,_ZNK8CUTXOSet8GetStatsEv
FN:797,848,_ZN8CUTXOSet11UpdateStatsEv
FN:850,868,_ZNK8CUTXOSet16IsCoinBaseMatureERK9COutPointj
FN:870,933,_ZNK8CUTXOSet17VerifyConsistencyEv
FN:935,980,_ZN8CUTXOSet5ClearEv
FN:97,100,_ZNK8CUTXOSet6IsOpenEv
FNDA:151,_ZNK8CUTXOSet17SerializeOutPointB5cxx11ERK9COutPoint
FNDA:133,_ZNK8CUTXOSet18SerializeUTXOEntryB5cxx11ERK10CUTXOEntry
FNDA:45,_ZNK8CUTXOSet20DeserializeUTXOEntryERKNSt7__cxx1112basic_stringIcSt11char_traitsIcESaIcEEER10CUTXOEntry
FNDA:36,_ZN8CUTXOSetC2Ev
FNDA:177,_ZNK8CUTXOSet11UpdateCacheERK9COutPointRK10CUTXOEntry
FNDA:15,_ZNK8CUTXOSet15RemoveFromCacheERK9COutPoint
FNDA:152,_ZNK8CUTXOSet12GetFromCacheERK9COutPointR10CUTXOEntry
FNDA:36,_ZN8CUTXOSetD2Ev
FNDA:194,_ZNK8CUTXOSet7GetUTXOERK9COutPointR10CUTXOEntry
FNDA:144,_ZNK8CUTXOSet8HaveUTXOERK9COutPoint
FNDA:155,_ZN8CUTXOSet7AddUTXOERK9COutPointRK6CTxOutjb
FNDA:37,_ZN8CUTXOSet4OpenERKNSt7__cxx1112basic_stringIcSt11char_traitsIcESaIcEEEb
FNDA:7,_ZN8CUTXOSet9SpendUTXOERK9COutPoint
FNDA:13,_ZN8CUTXOSet10ApplyBlockERK6CBlockj
FNDA:4,_ZN8CUTXOSet9UndoBlockERK6CBlock
FNDA:32,_ZN8CUTXOSet5FlushEv
FNDA:73,_ZN8CUTXOSet5CloseEv
FNDA:11,_ZNK8CUTXOSet8GetStatsEv
FNDA:1,_ZN8CUTXOSet11UpdateStatsEv
FNDA:8,_ZNK8CUTXOSet16IsCoinBaseMatureERK9COutPointj
FNDA:2,_ZNK8CUTXOSet17VerifyConsistencyEv
FNDA:17,_ZN8CUTXOSet5ClearEv
FNDA:448,_ZNK8CUTXOSet6IsOpenEv
FNF:23
FNH:23
DA:15,36
DA:16,36
DA:17,36
DA:18,36
DA:19,36
DA:21,36
DA:22,36
DA:23,36
DA:29,37
DA:30,37
DA:32,37
DA:33,0
DA:36,37
DA:38,37
DA:39,37
DA:40,37
DA:42,37
DA:44,37
DA:45,37
DA:47,37
DA:48,0
DA:49,0
DA:52,37
DA:55,37
DA:56,37
DA:57,37
DA:59,37
DA:61,17
DA:62,17
DA:63,17
DA:64,17
DA:66,17
DA:67,17
DA:68,17
DA:70,20
DA:73,37
DA:74,37
DA:76,73
DA:77,73
DA:80,73
DA:82,37
DA:83,37
DA:84,37
DA:85,37
DA:86,37
DA:87,37
DA:88,37
DA:89,37
DA:91,73
DA:92,73
DA:93,73
DA:94,73
DA:95,73
DA:97,448
DA:98,448
DA:99,896
DA:100,448
DA:106,151
DA:108,151
DA:109,151
DA:110,151
DA:111,151
DA:113,151
DA:114,151
DA:116,302
DA:117,0
DA:119,133
DA:121,133
DA:122,133
DA:125,133
DA:128,133
DA:129,133
DA:132,133
DA:135,133
DA:136,133
DA:139,133
DA:140,133
DA:143,266
DA:144,0
DA:146,45
DA:147,45
DA:148,0
DA:149,0
DA:152,45
DA:153,45
DA:156,45
DA:157,45
DA:161,45
DA:162,45
DA:163,45
DA:166,45
DA:167,45
DA:171,45
DA:172,45
DA:175,45
DA:176,0
DA:177,0
DA:181,45
DA:182,45
DA:183,45
DA:186,45
DA:193,177
DA:195,177
DA:197,0
DA:199,177
DA:200,177
DA:202,15
DA:203,15
DA:204,15
DA:206,152
DA:207,152
DA:208,152
DA:209,137
DA:210,137
DA:212,15
DA:219,194
DA:220,194
DA:221,0
DA:222,0
DA:225,194
DA:228,194
DA:229,2
DA:233,192
DA:234,192
DA:235,46
DA:236,46
DA:240,146
DA:241,134
DA:245,12
DA:246,12
DA:248,12
DA:249,12
DA:250,12
DA:254,0
DA:255,0
DA:259,0
DA:261,0
DA:262,194
DA:264,144
DA:265,144
DA:266,288
DA:267,144
DA:269,155
DA:270,155
DA:271,0
DA:272,0
DA:275,155
DA:278,155
DA:281,155
DA:284,155
DA:287,155
DA:290,155
DA:291,155
DA:293,155
DA:294,155
DA:296,7
DA:297,7
DA:298,0
DA:299,0
DA:302,7
DA:305,7
DA:308,7
DA:309,7
DA:310,1
DA:311,1
DA:312,6
DA:316,3
DA:317,3
DA:319,3
DA:320,3
DA:321,3
DA:322,3
DA:325,0
DA:326,0
DA:328,9
DA:331,4
DA:334,4
DA:337,4
DA:338,4
DA:340,4
DA:341,4
DA:344,4
DA:345,7
DA:347,13
DA:348,13
DA:349,0
DA:350,0
DA:358,13
DA:359,13
DA:362,13
DA:364,0
DA:365,0
DA:368,13
DA:369,0
DA:370,0
DA:375,13
DA:376,13
DA:379,13
DA:382,13
DA:384,32
DA:385,19
DA:386,19
DA:387,19
DA:390,19
DA:391,12
DA:393,6
DA:394,6
DA:396,0
DA:397,0
DA:398,0
DA:402,6
DA:405,6
DA:406,6
DA:410,6
DA:411,6
DA:413,6
DA:415,6
DA:416,6
DA:417,6
DA:420,6
DA:421,6
DA:423,6
DA:425,6
DA:428,6
DA:429,6
DA:430,6
DA:431,6
DA:434,6
DA:437,6
DA:438,6
DA:439,6
DA:441,6
DA:445,40
DA:446,21
DA:447,21
DA:450,21
DA:451,21
DA:452,21
DA:456,21
DA:457,21
DA:459,21
DA:462,21
DA:463,21
DA:466,21
DA:467,21
DA:470,21
DA:471,21
DA:474,21
DA:475,21
DA:476,21
DA:479,21
DA:481,21
DA:484,21
DA:485,21
DA:488,21
DA:489,21
DA:490,21
DA:494,13
DA:497,13
DA:498,13
DA:499,13
DA:500,13
DA:503,13
DA:506,13
DA:507,13
DA:508,0
DA:509,0
DA:513,13
DA:514,0
DA:515,0
DA:518,13
DA:519,13
DA:520,13
DA:522,13
DA:523,13
DA:525,4
DA:526,4
DA:527,0
DA:528,0
DA:536,4
DA:537,4
DA:538,4
DA:540,4
DA:541,4
DA:542,4
DA:543,0
DA:544,0
DA:547,4
DA:548,0
DA:549,0
DA:553,4
DA:554,4
DA:555,4
DA:558,4
DA:559,4
DA:562,4
DA:563,4
DA:566,4
DA:568,0
DA:569,0
DA:572,4
DA:573,0
DA:574,0
DA:578,4
DA:581,9
DA:582,5
DA:583,5
DA:585,10
DA:586,5
DA:587,5
DA:590,5
DA:591,5
DA:592,5
DA:595,5
DA:598,5
DA:601,5
DA:602,5
DA:603,5
DA:605,5
DA:609,5
DA:610,1
DA:611,0
DA:612,0
DA:616,1
DA:617,1
DA:618,1
DA:621,1
DA:622,1
DA:625,1
DA:626,0
DA:627,0
DA:631,1
DA:632,1
DA:634,1
DA:635,0
DA:636,0
DA:640,1
DA:641,1
DA:643,1
DA:644,0
DA:645,0
DA:648,1
DA:649,1
DA:651,1
DA:652,0
DA:653,0
DA:657,1
DA:658,1
DA:660,1
DA:661,1
DA:664,1
DA:665,1
DA:666,1
DA:667,1
DA:671,1
DA:672,1
DA:674,1
DA:677,1
DA:678,1
DA:681,1
DA:682,1
DA:685,1
DA:686,1
DA:689,1
DA:690,1
DA:693,1
DA:695,1
DA:698,1
DA:699,1
DA:700,1
DA:703,1
DA:704,1
DA:705,1
DA:708,4
DA:711,4
DA:712,4
DA:716,4
DA:717,4
DA:718,0
DA:719,0
DA:723,4
DA:724,0
DA:725,0
DA:728,4
DA:729,4
DA:731,4
DA:732,4
DA:734,32
DA:735,32
DA:736,0
DA:737,0
DA:740,32
DA:743,32
DA:746,165
DA:747,133
DA:748,133
DA:749,133
DA:750,133
DA:753,35
DA:754,3
DA:755,3
DA:756,3
DA:759,32
DA:760,32
DA:761,32
DA:762,32
DA:763,32
DA:764,32
DA:765,32
DA:768,32
DA:769,32
DA:770,32
DA:772,32
DA:773,0
DA:774,0
DA:778,32
DA:779,32
DA:781,32
DA:782,32
DA:783,32
DA:785,32
DA:786,32
DA:792,11
DA:793,11
DA:794,11
DA:795,11
DA:797,1
DA:798,1
DA:799,0
DA:800,0
DA:803,1
DA:806,1
DA:807,1
DA:810,1
DA:812,23
DA:813,11
DA:816,11
DA:817,0
DA:821,11
DA:822,1
DA:826,10
DA:827,10
DA:828,0
DA:829,0
DA:832,10
DA:833,10
DA:834,11
DA:836,1
DA:837,0
DA:838,0
DA:841,1
DA:842,1
DA:844,1
DA:845,1
DA:847,1
DA:848,1
DA:850,8
DA:851,8
DA:852,8
DA:853,0
DA:857,8
DA:858,3
DA:863,5
DA:864,3
DA:867,2
DA:868,8
DA:870,2
DA:871,2
DA:872,0
DA:873,0
DA:876,2
DA:878,2
DA:879,2
DA:882,2
DA:884,46
DA:885,22
DA:888,22
DA:889,0
DA:893,22
DA:894,2
DA:898,20
DA:899,0
DA:900,0
DA:904,20
DA:905,20
DA:906,0
DA:907,0
DA:911,20
DA:912,0
DA:913,0
DA:916,20
DA:917,20
DA:918,22
DA:920,2
DA:921,0
DA:922,0
DA:926,2
DA:927,2
DA:928,2
DA:930,2
DA:932,2
DA:933,2
DA:935,17
DA:936,17
DA:937,0
DA:938,0
DA:941,17
DA:943,17
DA:946,17
DA:949,17
DA:951,61
DA:952,22
DA:955,22
DA:956,22
DA:958,22
DA:961,17
DA:962,17
DA:963,0
DA:964,0
DA:968,17
DA:969,17
DA:970,17
DA:973,17
DA:974,17
DA:975,17
DA:977,17
DA:979,17
DA:980,17
LF:528
LH:442
end_of_record
TN:
SF:/mnt/c/Users/will/dilithion/src/node/utxo_set.h
FN:231,288,_ZNK8CUTXOSet7ForEachIZN10utxo_tests21utxo_foreach_iterator11test_methodEvEUlRK9COutPointRK10CUTXOEntryE0_EEmT_
FN:231,288,_ZNK8CUTXOSet7ForEachIZN10utxo_tests21utxo_foreach_iterator11test_methodEvEUlRK9COutPointRK10CUTXOEntryE_EEmT_
FN:24,24,_ZN10CUTXOEntryC2Ev
FN:25,26,_ZN10CUTXOEntryC2ERK6CTxOutjb
FN:28,28,_ZNK10CUTXOEntry6IsNullEv
FN:41,41,_ZN10CUTXOStatsC2Ev
FNDA:1,_ZNK8CUTXOSet7ForEachIZN10utxo_tests21utxo_foreach_iterator11test_methodEvEUlRK9COutPointRK10CUTXOEntryE0_EEmT_
FNDA:1,_ZNK8CUTXOSet7ForEachIZN10utxo_tests21utxo_foreach_iterator11test_methodEvEUlRK9COutPointRK10CUTXOEntryE_EEmT_
FNDA:574,_ZN10CUTXOEntryC2Ev
FNDA:177,_ZN10CUTXOEntryC2ERK6CTxOutjb
FNDA:20,_ZNK10CUTXOEntry6IsNullEv
FNDA:36,_ZN10CUTXOStatsC2Ev
FNF:6
FNH:6
DA:24,574
DA:25,177
DA:26,177
DA:28,20
DA:41,36
DA:231,2
DA:232,2
DA:234,2
DA:235,0
DA:238,2
DA:239,2
DA:242,2
DA:243,2
DA:245,34
DA:246,17
DA:247,17
DA:250,17
DA:251,0
DA:255,17
DA:256,2
DA:257,2
DA:261,15
DA:262,15
DA:265,15
DA:268,15
DA:271,15
DA:272,15
DA:274,15
DA:276,15
DA:277,1
DA:278,1
DA:280,14
DA:283,14
DA:286,1
DA:287,1
DA:288,2
LF:36
LH:34
end_of_record
TN:
SF:/mnt/c/Users/will/dilithion/src/primitives/block.cpp
FN:11,17,_ZNK7uint2566GetHexB5cxx11Ev
FN:19,45,_ZN7uint2566SetHexERKNSt7__cxx1112basic_stringIcSt11char_traitsIcESaIcEEE
FN:48,50,_ZlsRSoRK7uint256
FN:52,74,_ZNK12CBlockHeader7GetHashEv
FNDA:5,_ZNK7uint2566GetHexB5cxx11Ev
FNDA:6,_ZN7uint2566SetHexERKNSt7__cxx1112basic_stringIcSt11char_traitsIcESaIcEEE
FNDA:0,_ZlsRSoRK7uint256
FNDA:152,_ZNK12CBlockHeader7GetHashEv
FNF:4
FNH:3
DA:11,5
DA:12,5
DA:13,165
DA:14,160
DA:16,10
DA:17,5
DA:19,6
DA:20,6
DA:22,6
DA:23,1
DA:27,5
DA:28,5
DA:29,1
DA:34,72
DA:35,69
DA:36,69
DA:37,69
DA:38,69
DA:41,3
DA:42,0
DA:43,0
DA:44,0
DA:48,0
DA:49,0
DA:52,152
DA:54,152
DA:55,152
DA:58,152
DA:59,152
DA:60,152
DA:61,152
DA:62,152
DA:63,152
DA:64,152
DA:65,152
DA:66,152
DA:67,152
DA:70,152
DA:71,152
DA:73,304
DA:74,152
LF:41
LH:36
end_of_record
TN:
SF:/mnt/c/Users/will/dilithion/src/primitives/block.h
FN:18,18,_ZN7uint256C2Ev
FN:20,24,_ZNK7uint2566IsNullEv
FN:26,28,_ZNK7uint256ltERKS_
FN:30,32,_ZNK7uint256eqERKS_
FN:34,36,_ZNK7uint256neERKS_
FN:38,38,_ZN7uint2565beginEv
FN:39,39,_ZNK7uint2565beginEv
FN:40,40,_ZN7uint2563endEv
FN:41,41,_ZNK7uint2563endEv
FN:59,59,_ZN12CBlockHeaderC2Ev
FN:61,68,_ZN12CBlockHeader7SetNullEv
FN:70,70,_ZNK12CBlockHeader6IsNullEv
FN:78,78,_ZN6CBlockC2Ev
FN:79,82,_ZN6CBlockC2ERK12CBlockHeader
FN:84,87,_ZN6CBlock7SetNullEv
FNDA:72656,_ZN7uint256C2Ev
FNDA:1249,_ZNK7uint2566IsNullEv
FNDA:11824,_ZNK7uint256ltERKS_
FNDA:15104,_ZNK7uint256eqERKS_
FNDA:4970,_ZNK7uint256neERKS_
FNDA:49,_ZN7uint2565beginEv
FNDA:559,_ZNK7uint2565beginEv
FNDA:66,_ZN7uint2563endEv
FNDA:440,_ZNK7uint2563endEv
FNDA:10142,_ZN12CBlockHeaderC2Ev
FNDA:10179,_ZN12CBlockHeader7SetNullEv
FNDA:13,_ZNK12CBlockHeader6IsNullEv
FNDA:34,_ZN6CBlockC2Ev
FNDA:1,_ZN6CBlockC2ERK12CBlockHeader
FNDA:36,_ZN6CBlock7SetNullEv
FNF:15
FNH:15
DA:18,72656
DA:20,1249
DA:21,2883
DA:22,2835
DA:23,48
DA:26,11824
DA:27,11824
DA:30,15104
DA:31,15104
DA:34,4970
DA:35,4970
DA:38,49
DA:39,559
DA:40,66
DA:41,440
DA:59,10142
DA:61,10179
DA:62,10179
DA:63,10179
DA:64,10179
DA:65,10179
DA:66,10179
DA:67,10179
DA:68,10179
DA:70,13
DA:78,34
DA:79,1
DA:80,1
DA:81,1
DA:82,1
DA:84,36
DA:85,36
DA:86,36
DA:87,36
LF:34
LH:34
end_of_record
TN:
SF:/mnt/c/Users/will/dilithion/src/primitives/transaction.cpp
FN:107,161,_ZNK12CTransaction17GetSerializedSizeEv
FN:14,19,_ZL15SerializeUint32RSt6vectorIhSaIhEEj
FN:163,223,_ZNK12CTransaction19CheckBasicStructureEv
FN:22,31,_ZL15SerializeUint64RSt6vectorIhSaIhEEm
FN:225,235,_ZNK12CTransaction11GetValueOutEv
FN:242,255,_ZL17DeserializeUint32RPKhS0_RjPNSt7__cxx1112basic_stringIcSt11char_traitsIcESaIcEEE
FN:258,275,_ZL17DeserializeUint64RPKhS0_RmPNSt7__cxx1112basic_stringIcSt11char_traitsIcESaIcEEE
FN:278,312,_ZL22DeserializeCompactSizeRPKhS0_RmPNSt7__cxx1112basic_stringIcSt11char_traitsIcESaIcEEE
FN:318,451,_ZN12CTransaction11DeserializeEPKhmPNSt7__cxx1112basic_stringIcSt11char_traitsIcESaIcEEEPm
FN:34,48,_ZL20SerializeCompactSizeRSt6vectorIhSaIhEEm
FN:50,93,_ZNK12CTransaction9SerializeEv
FN:95,105,_ZNK12CTransaction7GetHashEv
FNDA:149,_ZNK12CTransaction17GetSerializedSizeEv
FNDA:386,_ZL15SerializeUint32RSt6vectorIhSaIhEEj
FNDA:30,_ZNK12CTransaction19CheckBasicStructureEv
FNDA:108,_ZL15SerializeUint64RSt6vectorIhSaIhEEm
FNDA:3,_ZNK12CTransaction11GetValueOutEv
FNDA:111,_ZL17DeserializeUint32RPKhS0_RjPNSt7__cxx1112basic_stringIcSt11char_traitsIcESaIcEEE
FNDA:30,_ZL17DeserializeUint64RPKhS0_RmPNSt7__cxx1112basic_stringIcSt11char_traitsIcESaIcEEE
FNDA:109,_ZL22DeserializeCompactSizeRPKhS0_RmPNSt7__cxx1112basic_stringIcSt11char_traitsIcESaIcEEE
FNDA:31,_ZN12CTransaction11DeserializeEPKhmPNSt7__cxx1112basic_stringIcSt11char_traitsIcESaIcEEEPm
FNDA:397,_ZL20SerializeCompactSizeRSt6vectorIhSaIhEEm
FNDA:96,_ZNK12CTransaction9SerializeEv
FNDA:100,_ZNK12CTransaction7GetHashEv
FNF:12
FNH:12
DA:14,386
DA:15,386
DA:16,386
DA:17,386
DA:18,386
DA:19,386
DA:22,108
DA:23,108
DA:24,108
DA:25,108
DA:26,108
DA:27,108
DA:28,108
DA:29,108
DA:30,108
DA:31,108
DA:34,397
DA:35,397
DA:36,397
DA:37,0
DA:38,0
DA:39,0
DA:40,0
DA:41,0
DA:42,0
DA:43,0
DA:45,0
DA:46,0
DA:48,397
DA:50,96
DA:51,96
DA:52,96
DA:55,96
DA:58,96
DA:61,193
DA:63,97
DA:66,97
DA:69,97
DA:70,97
DA:73,97
DA:77,96
DA:80,204
DA:82,108
DA:85,108
DA:86,108
DA:90,96
DA:92,96
DA:93,0
DA:95,100
DA:96,100
DA:98,72
DA:101,72
DA:102,72
DA:103,72
DA:104,100
DA:107,149
DA:108,149
DA:111,149
DA:114,149
DA:115,149
DA:116,1
DA:117,0
DA:118,0
DA:121,1305
DA:122,1156
DA:123,1156
DA:126,1156
DA:127,1156
DA:128,3
DA:129,3
DA:130,0
DA:132,1156
DA:133,1156
DA:137,149
DA:138,149
DA:139,0
DA:140,0
DA:141,0
DA:144,319
DA:145,170
DA:148,170
DA:149,170
DA:150,0
DA:151,0
DA:152,0
DA:154,170
DA:158,149
DA:160,149
DA:163,30
DA:166,30
DA:167,1
DA:170,29
DA:171,1
DA:175,28
DA:176,57
DA:180,5
DA:183,34
DA:184,5
DA:188,29
DA:189,0
DA:191,29
DA:195,23
DA:196,1
DA:200,22
DA:202,5
DA:203,1
DA:207,1037
DA:208,1020
DA:209,0
DA:214,17
DA:215,1035
DA:216,1020
DA:217,2
DA:220,17
DA:222,19
DA:225,3
DA:226,3
DA:227,9
DA:229,7
DA:230,1
DA:232,6
DA:234,2
DA:242,111
DA:243,111
DA:244,5
DA:245,5
DA:248,106
DA:249,106
DA:250,106
DA:251,106
DA:253,106
DA:254,106
DA:258,30
DA:259,30
DA:260,0
DA:261,0
DA:264,30
DA:265,30
DA:266,30
DA:267,30
DA:268,30
DA:269,30
DA:270,30
DA:271,30
DA:273,30
DA:274,30
DA:278,109
DA:279,109
DA:280,0
DA:281,0
DA:284,109
DA:285,109
DA:287,109
DA:288,109
DA:289,109
DA:290,0
DA:292,0
DA:293,0
DA:294,0
DA:296,0
DA:297,0
DA:298,0
DA:299,0
DA:300,0
DA:303,0
DA:304,0
DA:306,0
DA:307,0
DA:310,0
DA:318,31
DA:320,31
DA:322,31
DA:323,31
DA:327,31
DA:328,5
DA:330,26
DA:334,26
DA:335,0
DA:339,26
DA:340,0
DA:341,0
DA:345,26
DA:346,53
DA:347,27
DA:350,27
DA:351,0
DA:352,0
DA:354,27
DA:355,27
DA:358,27
DA:359,0
DA:364,27
DA:365,0
DA:369,27
DA:370,0
DA:371,0
DA:375,27
DA:376,0
DA:377,0
DA:379,27
DA:380,27
DA:383,27
DA:384,0
DA:390,26
DA:391,0
DA:395,26
DA:396,0
DA:397,0
DA:401,26
DA:402,56
DA:403,30
DA:406,30
DA:407,0
DA:412,30
DA:413,0
DA:417,30
DA:418,0
DA:419,0
DA:423,30
DA:424,0
DA:425,0
DA:427,30
DA:428,30
DA:432,26
DA:433,0
DA:437,26
DA:438,24
DA:441,2
DA:442,0
DA:443,0
DA:448,26
DA:450,26
LF:232
LH:169
end_of_record
TN:
SF:/mnt/c/Users/will/dilithion/src/primitives/transaction.h
FN:120,120,_ZN12CTransactionC2Ev
FN:123,124,_ZN12CTransactionC2EiSt6vectorI5CTxInSaIS1_EES0_I6CTxOutSaIS4_EEj
FN:127,128,_ZN12CTransactionC2ERKS_
FN:131,138,_ZN12CTransactionaSERKS_
FN:147,149,_ZNK12CTransaction6IsNullEv
FN:152,158,_ZN12CTransaction7SetNullEv
FN:167,169,_ZNK12CTransaction10IsCoinBaseEv
FN:195,197,_Z18MakeTransactionRefI12CTransactionESt10shared_ptrIKS0_EOT_
FN:195,197,_Z18MakeTransactionRefIR12CTransactionESt10shared_ptrIKS0_EOT_
FN:20,20,_ZN9COutPointC2Ev
FN:21,21,_ZN9COutPointC2ERK7uint256j
FN:23,23,_ZNK9COutPoint6IsNullEv
FN:25,28,_ZN9COutPoint7SetNullEv
FN:30,32,_ZNK9COutPointeqERKS_
FN:34,39,_ZNK9COutPointltERKS_
FN:55,55,_ZN5CTxInC2Ev
FN:57,58,_ZN5CTxInC2E9COutPointSt6vectorIhSaIhEEj
FN:60,61,_ZN5CTxInC2E7uint256jSt6vectorIhSaIhEEj
FN:63,67,_ZNK5CTxIneqERKS_
FN:79,79,_ZN6CTxOutC2Ev
FN:81,82,_ZN6CTxOutC2EmSt6vectorIhSaIhEE
FN:84,84,_ZNK6CTxOut6IsNullEv
FN:86,89,_ZN6CTxOut7SetNullEv
FN:91,94,_ZNK6CTxOuteqERKS_
FNDA:143,_ZN12CTransactionC2Ev
FNDA:3,_ZN12CTransactionC2EiSt6vectorI5CTxInSaIS1_EES0_I6CTxOutSaIS4_EEj
FNDA:64,_ZN12CTransactionC2ERKS_
FNDA:1,_ZN12CTransactionaSERKS_
FNDA:20,_ZNK12CTransaction6IsNullEv
FNDA:32,_ZN12CTransaction7SetNullEv
FNDA:63,_ZNK12CTransaction10IsCoinBaseEv
FNDA:24,_Z18MakeTransactionRefI12CTransactionESt10shared_ptrIKS0_EOT_
FNDA:19,_Z18MakeTransactionRefIR12CTransactionESt10shared_ptrIKS0_EOT_
FNDA:66,_ZN9COutPointC2Ev
FNDA:1283,_ZN9COutPointC2ERK7uint256j
FNDA:1091,_ZNK9COutPoint6IsNullEv
FNDA:1,_ZN9COutPoint7SetNullEv
FNDA:7,_ZNK9COutPointeqERKS_
FNDA:15077,_ZNK9COutPointltERKS_
FNDA:28,_ZN5CTxInC2Ev
FNDA:71,_ZN5CTxInC2E9COutPointSt6vectorIhSaIhEEj
FNDA:1053,_ZN5CTxInC2E7uint256jSt6vectorIhSaIhEEj
FNDA:4,_ZNK5CTxIneqERKS_
FNDA:605,_ZN6CTxOutC2Ev
FNDA:291,_ZN6CTxOutC2EmSt6vectorIhSaIhEE
FNDA:24,_ZNK6CTxOut6IsNullEv
FNDA:1,_ZN6CTxOut7SetNullEv
FNDA:5,_ZNK6CTxOuteqERKS_
FNF:24
FNH:24
DA:20,66
DA:21,1283
DA:23,1091
DA:25,1
DA:26,1
DA:27,1
DA:28,1
DA:30,7
DA:31,7
DA:34,15077
DA:35,15077
DA:36,3262
DA:38,11815
DA:55,28
DA:57,71
DA:58,71
DA:60,1053
DA:61,1053
DA:63,4
DA:64,4
DA:65,7
DA:66,7
DA:79,605
DA:81,291
DA:82,291
DA:84,24
DA:86,1
DA:87,1
DA:88,1
DA:89,1
DA:91,5
DA:92,9
DA:93,9
DA:120,143
DA:123,3
DA:124,3
DA:127,64
DA:128,64
DA:131,1
DA:132,1
DA:133,1
DA:134,1
DA:135,1
DA:136,1
DA:137,1
DA:147,20
DA:148,20
DA:152,32
DA:153,32
DA:154,32
DA:155,32
DA:156,32
DA:157,32
DA:158,32
DA:167,63
DA:168,63
DA:195,43
DA:196,43
LF:58
LH:58
end_of_record
TN:
SF:/mnt/c/Users/will/dilithion/src/util/strencodings.h
FN:11,18,_Z9strprintfB5cxx11PKcz
FNDA:7,_Z9strprintfB5cxx11PKcz
FNF:1
FNH:1
DA:11,7
DA:14,7
DA:15,7
DA:16,7
DA:17,14
LF:5
LH:5
end_of_record
TN:
SF:/mnt/c/Users/will/dilithion/src/util/time.h
FN:8,10,_Z7GetTimev
FNDA:0,_Z7GetTimev
FNF:1
FNH:0
DA:8,0
DA:9,0
LF:2
LH:0
end_of_record
